target datalayout = "e-m:e-p270:32:32-p271:32:32-p272:64:64-i64:64-i128:128-f80:128-n8:16:32:64-S128"
target triple = "x86_64-pc-linux-gnu"

@.str.4 = private unnamed_addr constant [17 x i8] c"eDonkey Protocol\00", align 1
@.str.282 = private unnamed_addr constant [8 x i8] c"EDONKEY\00", align 1
@.str.283 = private unnamed_addr constant [8 x i8] c"edonkey\00", align 1
@proto_edonkey = internal global i32 0, align 4
@.str.284 = private unnamed_addr constant [12 x i8] c"edonkey.tcp\00", align 1
@edonkey_tcp_handle = internal global ptr null, align 8
@.str.285 = private unnamed_addr constant [12 x i8] c"edonkey.udp\00", align 1
@edonkey_udp_handle = internal global ptr null, align 8
@.str.286 = private unnamed_addr constant [10 x i8] c"desegment\00", align 1
@.str.287 = private unnamed_addr constant [59 x i8] c"Reassemble eDonkey messages spanning multiple TCP segments\00", align 1
@.str.288 = private unnamed_addr constant [208 x i8] c"Whether the eDonkey dissector should reassemble messages spanning multiple TCP segments. To use this option, you must also enable \22Allow subdissectors to reassemble TCP streams\22 in the TCP protocol settings.\00", align 1
@edonkey_desegment = internal global i8 1, align 1

; Function Attrs: null_pointer_is_valid sspstrong uwtable
define hidden void @proto_register_edonkey() #0 {
  %1 = alloca ptr, align 8
  %2 = alloca ptr, align 8
  call void @llvm.lifetime.start.p0(i64 8, ptr %1) #6
  call void @llvm.lifetime.start.p0(i64 8, ptr %2) #6
  %3 = call i32 @proto_register_protocol(ptr noundef @.str.4, ptr noundef @.str.282, ptr noundef @.str.283)
  store i32 %3, ptr @proto_edonkey, align 4
  %4 = load i32, ptr @proto_edonkey, align 4
  call void @proto_register_field_array(i32 noundef %4, ptr noundef @proto_register_edonkey.hf, i32 noundef 113)
  call void @proto_register_subtree_array(ptr noundef @proto_register_edonkey.ett, i32 noundef 15)
  %5 = load i32, ptr @proto_edonkey, align 4
  %6 = call ptr @expert_register_protocol(i32 noundef %5)
  store ptr %6, ptr %2, align 8
  %7 = load ptr, ptr %2, align 8
  call void @expert_register_field_array(ptr noundef %7, ptr noundef @proto_register_edonkey.ei, i32 noundef 2)
  %8 = load i32, ptr @proto_edonkey, align 4
  %9 = call ptr @register_dissector(ptr noundef @.str.284, ptr noundef @dissect_edonkey_tcp, i32 noundef %8)
  store ptr %9, ptr @edonkey_tcp_handle, align 8
  %10 = load i32, ptr @proto_edonkey, align 4
  %11 = call ptr @register_dissector(ptr noundef @.str.285, ptr noundef @dissect_edonkey_udp, i32 noundef %10)
  store ptr %11, ptr @edonkey_udp_handle, align 8
  %12 = load i32, ptr @proto_edonkey, align 4
  %13 = call ptr @prefs_register_protocol(i32 noundef %12, ptr noundef null)
  store ptr %13, ptr %1, align 8
  %14 = load ptr, ptr %1, align 8
  call void @prefs_register_bool_preference(ptr noundef %14, ptr noundef @.str.286, ptr noundef @.str.287, ptr noundef @.str.288, ptr noundef @edonkey_desegment)
  call void @llvm.lifetime.end.p0(i64 8, ptr %2) #6
  call void @llvm.lifetime.end.p0(i64 8, ptr %1) #6
  ret void
}